target datalayout = "e-m:e-p270:32:32-p271:32:32-p272:64:64-i64:64-i128:128-f80:128-n8:16:32:64-S128"
target triple = "x86_64-pc-linux-gnu"

%"class.net::SpdyHeadersBlockParser" = type <{ ptr, i32, [4 x i8], i64, i64, i32, i32, ptr, %"struct.net::SpdyPinnableBufferPiece", %"struct.net::SpdyPinnableBufferPiece", i32, i32, i32, [4 x i8] }>
%"struct.net::SpdyPinnableBufferPiece" = type { ptr, i64, %"class.std::unique_ptr" }
%"class.std::unique_ptr" = type { %"struct.std::__uniq_ptr_data" }
%"struct.std::__uniq_ptr_data" = type { %"class.std::__uniq_ptr_impl" }
%"class.std::__uniq_ptr_impl" = type { %"class.std::tuple" }
%"class.std::tuple" = type { %"struct.std::_Tuple_impl" }
%"struct.std::_Tuple_impl" = type { %"struct.std::_Head_base.1" }
%"struct.std::_Head_base.1" = type { ptr }

; Function Attrs: inlinehint mustprogress nounwind uwtable
define linkonce_odr noundef i32 @_ZN4base8ByteSwapEj(i32 noundef %0) #8 comdat {
  %2 = alloca i32, align 4
  store i32 %0, ptr %2, align 4, !tbaa !36
  %3 = load i32, ptr %2, align 4, !tbaa !36
  %4 = call i32 @llvm.bswap.i32(i32 %3)
  ret i32 %4
}

; Function Attrs: inlinehint mustprogress uwtable
define linkonce_odr noundef i32 @_ZN4base11NetToHost32Ej(i32 noundef %0) #6 comdat {
  %2 = alloca i32, align 4
  store i32 %0, ptr %2, align 4, !tbaa !36
  %3 = load i32, ptr %2, align 4, !tbaa !36
  %4 = call noundef i32 @_ZN4base8ByteSwapEj(i32 noundef %3)
  ret i32 %4
}

; Function Attrs: mustprogress uwtable
define void @_ZN3net22SpdyHeadersBlockParser11ParseLengthEPNS_24SpdyPrefixedBufferReaderEPj(ptr noundef nonnull align 8 dereferenceable(108) %0, ptr noundef %1, ptr noundef %2) #0 align 2 {
  %4 = alloca ptr, align 8
  %5 = alloca ptr, align 8
  %6 = alloca ptr, align 8
  %7 = alloca [4 x i8], align 1
  %8 = alloca i32, align 4
  store ptr %0, ptr %4, align 8, !tbaa !3
  store ptr %1, ptr %5, align 8, !tbaa !52
  store ptr %2, ptr %6, align 8, !tbaa !54
  %9 = load ptr, ptr %4, align 8
  call void @llvm.lifetime.start.p0(i64 4, ptr %7) #10
  call void @llvm.memset.p0.i64(ptr align 1 %7, i8 0, i64 4, i1 false)
  %10 = load ptr, ptr %5, align 8, !tbaa !52
  %11 = getelementptr inbounds [4 x i8], ptr %7, i64 0, i64 0
  %12 = call noundef zeroext i1 @_ZN3net24SpdyPrefixedBufferReader5ReadNEmPc(ptr noundef nonnull align 8 dereferenceable(32) %10, i64 noundef 4, ptr noundef %11)
  br i1 %12, label %15, label %13

13:                                               ; preds = %3
  %14 = getelementptr inbounds nuw %"class.net::SpdyHeadersBlockParser", ptr %9, i32 0, i32 11
  store i32 1, ptr %14, align 4, !tbaa !33
  store i32 1, ptr %8, align 4
  br label %20

15:                                               ; preds = %3
  %16 = getelementptr inbounds [4 x i8], ptr %7, i64 0, i64 0
  %17 = load i32, ptr %16, align 1, !tbaa !36
  %18 = call noundef i32 @_ZN4base11NetToHost32Ej(i32 noundef %17)
  %19 = load ptr, ptr %6, align 8, !tbaa !54
  store i32 %18, ptr %19, align 4, !tbaa !36
  store i32 0, ptr %8, align 4
  br label %20

20:                                               ; preds = %15, %13
  call void @llvm.lifetime.end.p0(i64 4, ptr %7) #10
  %21 = load i32, ptr %8, align 4
  switch i32 %21, label %23 [
    i32 0, label %22
    i32 1, label %22
  ]

22:                                               ; preds = %20, %20
  ret void

23:                                               ; preds = %20
  unreachable
}

; Function Attrs: mustprogress uwtable
define void @_ZN3net22SpdyHeadersBlockParser16ParseFieldLengthEPNS_24SpdyPrefixedBufferReaderE(ptr noundef nonnull align 8 dereferenceable(108) %0, ptr noundef %1) #0 align 2 {
  %3 = alloca ptr, align 8
  %4 = alloca ptr, align 8
  store ptr %0, ptr %3, align 8, !tbaa !3
  store ptr %1, ptr %4, align 8, !tbaa !52
  %5 = load ptr, ptr %3, align 8
  %6 = load ptr, ptr %4, align 8, !tbaa !52
  %7 = getelementptr inbounds nuw %"class.net::SpdyHeadersBlockParser", ptr %5, i32 0, i32 6
  call void @_ZN3net22SpdyHeadersBlockParser11ParseLengthEPNS_24SpdyPrefixedBufferReaderEPj(ptr noundef nonnull align 8 dereferenceable(108) %5, ptr noundef %6, ptr noundef %7)
  %8 = getelementptr inbounds nuw %"class.net::SpdyHeadersBlockParser", ptr %5, i32 0, i32 11
  %9 = load i32, ptr %8, align 4, !tbaa !33
  %10 = icmp eq i32 %9, 0
  br i1 %10, label %11, label %18

11:                                               ; preds = %2
  %12 = getelementptr inbounds nuw %"class.net::SpdyHeadersBlockParser", ptr %5, i32 0, i32 6
  %13 = load i32, ptr %12, align 4, !tbaa !39
  %14 = zext i32 %13 to i64
  %15 = icmp ugt i64 %14, 16384
  br i1 %15, label %16, label %18

16:                                               ; preds = %11
  %17 = getelementptr inbounds nuw %"class.net::SpdyHeadersBlockParser", ptr %5, i32 0, i32 11
  store i32 4, ptr %17, align 4, !tbaa !33
  br label %18

18:                                               ; preds = %16, %11, %2
  ret void
}