; Function Attrs: mustprogress uwtable
define void @_ZN3net22SpdyHeadersBlockParser16ParseFieldLengthEPNS_24SpdyPrefixedBufferReaderE(ptr noundef nonnull align 8 captures(none) dereferenceable(108) %0, ptr noundef nonnull %1) local_unnamed_addr #0 align 2 {
  %3 = alloca [4 x i8], align 4
  call void @llvm.lifetime.start.p0(i64 4, ptr nonnull %3) #8
  store i32 0, ptr %3, align 4
  %4 = call noundef zeroext i1 @_ZN3net24SpdyPrefixedBufferReader5ReadNEmPc(ptr noundef nonnull align 8 dereferenceable(32) %1, i64 noundef 4, ptr noundef nonnull %3)
  br i1 %4, label %_ZN3net22SpdyHeadersBlockParser11ParseLengthEPNS_24SpdyPrefixedBufferReaderEPj.exit, label %_ZN3net22SpdyHeadersBlockParser11ParseLengthEPNS_24SpdyPrefixedBufferReaderEPj.exit.thread

_ZN3net22SpdyHeadersBlockParser11ParseLengthEPNS_24SpdyPrefixedBufferReaderEPj.exit.thread: ; preds = %2
  %5 = getelementptr inbounds nuw i8, ptr %0, i64 100
  store i32 1, ptr %5, align 4, !tbaa !29
  call void @llvm.lifetime.end.p0(i64 4, ptr nonnull %3) #8
  br label %13

_ZN3net22SpdyHeadersBlockParser11ParseLengthEPNS_24SpdyPrefixedBufferReaderEPj.exit: ; preds = %2
  %6 = getelementptr inbounds nuw i8, ptr %0, i64 36
  %7 = load i32, ptr %3, align 4, !tbaa !33
  %8 = call noundef i32 @llvm.bswap.i32(i32 %7)
  store i32 %8, ptr %6, align 4, !tbaa !33
  %.phi.trans.insert = getelementptr inbounds nuw i8, ptr %0, i64 100
  %.pre = load i32, ptr %.phi.trans.insert, align 4, !tbaa !29
  %9 = icmp eq i32 %.pre, 0
  call void @llvm.lifetime.end.p0(i64 4, ptr nonnull %3) #8
  %10 = icmp ugt i32 %8, 16384
  %or.cond = and i1 %9, %10
  br i1 %or.cond, label %11, label %13

11:                                               ; preds = %_ZN3net22SpdyHeadersBlockParser11ParseLengthEPNS_24SpdyPrefixedBufferReaderEPj.exit
  %12 = getelementptr inbounds nuw i8, ptr %0, i64 100
  store i32 4, ptr %12, align 4, !tbaa !29
  br label %13

13:                                               ; preds = %_ZN3net22SpdyHeadersBlockParser11ParseLengthEPNS_24SpdyPrefixedBufferReaderEPj.exit.thread, %11, %_ZN3net22SpdyHeadersBlockParser11ParseLengthEPNS_24SpdyPrefixedBufferReaderEPj.exit
  ret void
}